; Function Attrs: nofree norecurse nosync nounwind memory(readwrite, inaccessiblemem: none) uwtable
define hidden void @lxb_html_tree_open_elements_pop_until_td_th(ptr nocapture noundef readonly %0) local_unnamed_addr #0 {
  %2 = getelementptr inbounds i8, ptr %0, i64 32
  %3 = load ptr, ptr %2, align 8
  %4 = load ptr, ptr %3, align 8
  %5 = getelementptr inbounds i8, ptr %3, i64 16
  %6 = load i64, ptr %5, align 8
  %.not7 = icmp eq i64 %6, 0
  br i1 %.not7, label %._crit_edge, label %.lr.ph

.lr.ph:                                           ; preds = %1, %.lr.ph.backedge
  %7 = phi i64 [ %12, %.lr.ph.backedge ], [ %6, %1 ]
  %8 = phi ptr [ %11, %.lr.ph.backedge ], [ %5, %1 ]
  %9 = add i64 %7, -1
  store i64 %9, ptr %8, align 8
  %10 = load ptr, ptr %2, align 8
  %11 = getelementptr inbounds i8, ptr %10, i64 16
  %12 = load i64, ptr %11, align 8
  %13 = getelementptr inbounds ptr, ptr %4, i64 %12
  %14 = load ptr, ptr %13, align 8
  %15 = getelementptr inbounds i8, ptr %14, i64 8
  %16 = load i64, ptr %15, align 8
  switch i64 %16, label %21 [
    i64 178, label %17
    i64 183, label %17
  ]

17:                                               ; preds = %.lr.ph, %.lr.ph
  %18 = getelementptr inbounds i8, ptr %14, i64 24
  %19 = load i64, ptr %18, align 8
  %20 = icmp eq i64 %19, 2
  %.not = icmp eq i64 %12, 0
  %or.cond = or i1 %20, %.not
  br i1 %or.cond, label %._crit_edge, label %.lr.ph.backedge

21:                                               ; preds = %.lr.ph
  %.not.old = icmp eq i64 %12, 0
  br i1 %.not.old, label %._crit_edge, label %.lr.ph.backedge

.lr.ph.backedge:                                  ; preds = %21, %17
  br label %.lr.ph

._crit_edge:                                      ; preds = %21, %17, %1
  ret void
}